target datalayout = "e-m:e-p270:32:32-p271:32:32-p272:64:64-i64:64-i128:128-f80:128-n8:16:32:64-S128"
target triple = "x86_64-pc-linux-gnu"

%struct.pmix_mca_base_framework_t = type { ptr, ptr, ptr, ptr, ptr, ptr, i32, i32, ptr, ptr, i32, i32, %struct.pmix_list_t, %struct.pmix_list_t }
%struct.pmix_list_t = type { %struct.pmix_object_t, %struct.pmix_list_item_t, i64 }
%struct.pmix_object_t = type { %union.pthread_mutex_t, ptr, i32, %struct.pmix_tma }
%union.pthread_mutex_t = type { %struct.__pthread_mutex_s }
%struct.__pthread_mutex_s = type { i32, i32, i32, i32, i32, i16, i16, %struct.__pthread_internal_list }
%struct.__pthread_internal_list = type { ptr, ptr }
%struct.pmix_tma = type { ptr, ptr, ptr, ptr, ptr, ptr, ptr, ptr }
%struct.pmix_list_item_t = type { %struct.pmix_object_t, ptr, ptr, i32 }
%struct.pmix_output_desc_t = type { i8, i8, i32, i8, i32, ptr, ptr, i32, ptr, i32, i8, i8, i8, i8, ptr, i32, i32 }
%struct.pmix_bfrop_type_info_t = type { %struct.pmix_object_t, i16, ptr, ptr, ptr, ptr, ptr }
%struct.pmix_pointer_array_t = type { %struct.pmix_object_t, i32, i32, i32, i32, i32, ptr, ptr }
%struct.pmix_proc = type { [256 x i8], i32 }
%struct.pmix_proc_info = type { %struct.pmix_proc, ptr, ptr, i32, i32, i8 }

@pmix_bfrops_base_framework = external global %struct.pmix_mca_base_framework_t, align 8
@pmix_output_info = external global [0 x %struct.pmix_output_desc_t], align 8
@.str.27 = private unnamed_addr constant [28 x i8] c"pmix_bfrop_unpack: %d pinfo\00", align 1

; Function Attrs: inlinehint nounwind uwtable
define internal ptr @pmix_pointer_array_get_item(ptr noundef %0, i32 noundef %1) #3 {
  %3 = alloca ptr, align 8
  %4 = alloca ptr, align 8
  %5 = alloca i32, align 4
  %6 = alloca ptr, align 8
  %7 = alloca i32, align 4
  store ptr %0, ptr %4, align 8, !tbaa !3
  store i32 %1, ptr %5, align 4, !tbaa !13
  call void @llvm.lifetime.start.p0(i64 8, ptr %6) #11
  %8 = load i32, ptr %5, align 4, !tbaa !13
  %9 = icmp sgt i32 0, %8
  br i1 %9, label %16, label %10

10:                                               ; preds = %2
  %11 = load ptr, ptr %4, align 8, !tbaa !3
  %12 = getelementptr inbounds nuw %struct.pmix_pointer_array_t, ptr %11, i32 0, i32 3
  %13 = load i32, ptr %12, align 8, !tbaa !33
  %14 = load i32, ptr %5, align 4, !tbaa !13
  %15 = icmp sle i32 %13, %14
  br label %16

16:                                               ; preds = %10, %2
  %17 = phi i1 [ true, %2 ], [ %15, %10 ]
  %18 = xor i1 %17, true
  %19 = xor i1 %18, true
  %20 = zext i1 %19 to i32
  %21 = sext i32 %20 to i64
  %22 = call i64 @llvm.expect.i64(i64 %21, i64 0)
  %23 = icmp ne i64 %22, 0
  br i1 %23, label %24, label %25

24:                                               ; preds = %16
  store ptr null, ptr %3, align 8
  store i32 1, ptr %7, align 4
  br label %34

25:                                               ; preds = %16
  %26 = load ptr, ptr %4, align 8, !tbaa !3
  %27 = getelementptr inbounds nuw %struct.pmix_pointer_array_t, ptr %26, i32 0, i32 7
  %28 = load ptr, ptr %27, align 8, !tbaa !36
  %29 = load i32, ptr %5, align 4, !tbaa !13
  %30 = sext i32 %29 to i64
  %31 = getelementptr inbounds ptr, ptr %28, i64 %30
  %32 = load ptr, ptr %31, align 8, !tbaa !8
  store ptr %32, ptr %6, align 8, !tbaa !8
  %33 = load ptr, ptr %6, align 8, !tbaa !8
  store ptr %33, ptr %3, align 8
  store i32 1, ptr %7, align 4
  br label %34

34:                                               ; preds = %25, %24
  call void @llvm.lifetime.end.p0(i64 8, ptr %6) #11
  %35 = load ptr, ptr %3, align 8
  ret ptr %35
}

; Function Attrs: nounwind uwtable
define i32 @pmix_bfrops_base_unpack_pinfo(ptr noundef %0, ptr noundef %1, ptr noundef %2, ptr noundef %3, i16 noundef zeroext %4) #0 {
  %6 = alloca i32, align 4
  %7 = alloca ptr, align 8
  %8 = alloca ptr, align 8
  %9 = alloca ptr, align 8
  %10 = alloca ptr, align 8
  %11 = alloca i16, align 2
  %12 = alloca ptr, align 8
  %13 = alloca i32, align 4
  %14 = alloca i32, align 4
  %15 = alloca i32, align 4
  %16 = alloca i32, align 4
  %17 = alloca ptr, align 8
  %18 = alloca i32, align 4
  %19 = alloca ptr, align 8
  %20 = alloca ptr, align 8
  %21 = alloca ptr, align 8
  %22 = alloca ptr, align 8
  store ptr %0, ptr %7, align 8, !tbaa !3
  store ptr %1, ptr %8, align 8, !tbaa !8
  store ptr %2, ptr %9, align 8, !tbaa !8
  store ptr %3, ptr %10, align 8, !tbaa !9
  store i16 %4, ptr %11, align 2, !tbaa !11
  call void @llvm.lifetime.start.p0(i64 8, ptr %12) #11
  call void @llvm.lifetime.start.p0(i64 4, ptr %13) #11
  call void @llvm.lifetime.start.p0(i64 4, ptr %14) #11
  call void @llvm.lifetime.start.p0(i64 4, ptr %15) #11
  call void @llvm.lifetime.start.p0(i64 4, ptr %16) #11
  %23 = load i32, ptr getelementptr inbounds nuw (%struct.pmix_mca_base_framework_t, ptr @pmix_bfrops_base_framework, i32 0, i32 11), align 4, !tbaa !15
  %24 = icmp sge i32 %23, 0
  br i1 %24, label %25, label %39

25:                                               ; preds = %5
  %26 = load i32, ptr getelementptr inbounds nuw (%struct.pmix_mca_base_framework_t, ptr @pmix_bfrops_base_framework, i32 0, i32 11), align 4, !tbaa !15
  %27 = icmp slt i32 %26, 64
  br i1 %27, label %28, label %39

28:                                               ; preds = %25
  %29 = load i32, ptr getelementptr inbounds nuw (%struct.pmix_mca_base_framework_t, ptr @pmix_bfrops_base_framework, i32 0, i32 11), align 4, !tbaa !15
  %30 = sext i32 %29 to i64
  %31 = getelementptr inbounds [0 x %struct.pmix_output_desc_t], ptr @pmix_output_info, i64 0, i64 %30
  %32 = getelementptr inbounds nuw %struct.pmix_output_desc_t, ptr %31, i32 0, i32 2
  %33 = load i32, ptr %32, align 4, !tbaa !26
  %34 = icmp sge i32 %33, 20
  br i1 %34, label %35, label %39

35:                                               ; preds = %28
  %36 = load i32, ptr getelementptr inbounds nuw (%struct.pmix_mca_base_framework_t, ptr @pmix_bfrops_base_framework, i32 0, i32 11), align 4, !tbaa !15
  %37 = load ptr, ptr %10, align 8, !tbaa !9
  %38 = load i32, ptr %37, align 4, !tbaa !13
  call void (i32, ptr, ...) @pmix_output(i32 noundef %36, ptr noundef @.str.27, i32 noundef %38)
  br label %39

39:                                               ; preds = %35, %28, %25, %5
  %40 = load ptr, ptr %9, align 8, !tbaa !8
  store ptr %40, ptr %12, align 8, !tbaa !157
  %41 = load ptr, ptr %10, align 8, !tbaa !9
  %42 = load i32, ptr %41, align 4, !tbaa !13
  store i32 %42, ptr %14, align 4, !tbaa !13
  store i32 0, ptr %13, align 4, !tbaa !13
  br label %43

43:                                               ; preds = %182, %39
  %44 = load i32, ptr %13, align 4, !tbaa !13
  %45 = load i32, ptr %14, align 4, !tbaa !13
  %46 = icmp slt i32 %44, %45
  br i1 %46, label %47, label %185

47:                                               ; preds = %43
  %48 = load ptr, ptr %12, align 8, !tbaa !157
  %49 = load i32, ptr %13, align 4, !tbaa !13
  %50 = sext i32 %49 to i64
  %51 = getelementptr inbounds %struct.pmix_proc_info, ptr %48, i64 %50
  call void @PMIx_Proc_info_construct(ptr noundef %51)
  store i32 1, ptr %15, align 4, !tbaa !13
  br label %52

52:                                               ; preds = %47
  call void @llvm.lifetime.start.p0(i64 8, ptr %17) #11
  %53 = load ptr, ptr %7, align 8, !tbaa !3
  %54 = call ptr @pmix_pointer_array_get_item(ptr noundef %53, i32 noundef 22)
  store ptr %54, ptr %17, align 8, !tbaa !8
  %55 = load ptr, ptr %17, align 8, !tbaa !8
  %56 = icmp eq ptr null, %55
  br i1 %56, label %57, label %58

57:                                               ; preds = %52
  store i32 -16, ptr %16, align 4, !tbaa !13
  br label %70

58:                                               ; preds = %52
  %59 = load ptr, ptr %17, align 8, !tbaa !8
  %60 = getelementptr inbounds nuw %struct.pmix_bfrop_type_info_t, ptr %59, i32 0, i32 4
  %61 = load ptr, ptr %60, align 8, !tbaa !31
  %62 = load ptr, ptr %7, align 8, !tbaa !3
  %63 = load ptr, ptr %8, align 8, !tbaa !8
  %64 = load ptr, ptr %12, align 8, !tbaa !157
  %65 = load i32, ptr %13, align 4, !tbaa !13
  %66 = sext i32 %65 to i64
  %67 = getelementptr inbounds %struct.pmix_proc_info, ptr %64, i64 %66
  %68 = getelementptr inbounds nuw %struct.pmix_proc_info, ptr %67, i32 0, i32 0
  %69 = call i32 %61(ptr noundef %62, ptr noundef %63, ptr noundef %68, ptr noundef %15, i16 noundef zeroext 22)
  store i32 %69, ptr %16, align 4, !tbaa !13
  br label %70

70:                                               ; preds = %58, %57
  call void @llvm.lifetime.end.p0(i64 8, ptr %17) #11
  br label %71

71:                                               ; preds = %70
  br label %72

72:                                               ; preds = %71
  %73 = load i32, ptr %16, align 4, !tbaa !13
  %74 = icmp ne i32 0, %73
  br i1 %74, label %75, label %77

75:                                               ; preds = %72
  %76 = load i32, ptr %16, align 4, !tbaa !13
  store i32 %76, ptr %6, align 4
  store i32 1, ptr %18, align 4
  br label %186

77:                                               ; preds = %72
  store i32 1, ptr %15, align 4, !tbaa !13
  br label %78

78:                                               ; preds = %77
  call void @llvm.lifetime.start.p0(i64 8, ptr %19) #11
  %79 = load ptr, ptr %7, align 8, !tbaa !3
  %80 = call ptr @pmix_pointer_array_get_item(ptr noundef %79, i32 noundef 3)
  store ptr %80, ptr %19, align 8, !tbaa !8
  %81 = load ptr, ptr %19, align 8, !tbaa !8
  %82 = icmp eq ptr null, %81
  br i1 %82, label %83, label %84

83:                                               ; preds = %78
  store i32 -16, ptr %16, align 4, !tbaa !13
  br label %96

84:                                               ; preds = %78
  %85 = load ptr, ptr %19, align 8, !tbaa !8
  %86 = getelementptr inbounds nuw %struct.pmix_bfrop_type_info_t, ptr %85, i32 0, i32 4
  %87 = load ptr, ptr %86, align 8, !tbaa !31
  %88 = load ptr, ptr %7, align 8, !tbaa !3
  %89 = load ptr, ptr %8, align 8, !tbaa !8
  %90 = load ptr, ptr %12, align 8, !tbaa !157
  %91 = load i32, ptr %13, align 4, !tbaa !13
  %92 = sext i32 %91 to i64
  %93 = getelementptr inbounds %struct.pmix_proc_info, ptr %90, i64 %92
  %94 = getelementptr inbounds nuw %struct.pmix_proc_info, ptr %93, i32 0, i32 1
  %95 = call i32 %87(ptr noundef %88, ptr noundef %89, ptr noundef %94, ptr noundef %15, i16 noundef zeroext 3)
  store i32 %95, ptr %16, align 4, !tbaa !13
  br label %96

96:                                               ; preds = %84, %83
  call void @llvm.lifetime.end.p0(i64 8, ptr %19) #11
  br label %97

97:                                               ; preds = %96
  br label %98

98:                                               ; preds = %97
  %99 = load i32, ptr %16, align 4, !tbaa !13
  %100 = icmp ne i32 0, %99
  br i1 %100, label %101, label %103

101:                                              ; preds = %98
  %102 = load i32, ptr %16, align 4, !tbaa !13
  store i32 %102, ptr %6, align 4
  store i32 1, ptr %18, align 4
  br label %186

103:                                              ; preds = %98
  store i32 1, ptr %15, align 4, !tbaa !13
  br label %104

104:                                              ; preds = %103
  call void @llvm.lifetime.start.p0(i64 8, ptr %20) #11
  %105 = load ptr, ptr %7, align 8, !tbaa !3
  %106 = call ptr @pmix_pointer_array_get_item(ptr noundef %105, i32 noundef 3)
  store ptr %106, ptr %20, align 8, !tbaa !8
  %107 = load ptr, ptr %20, align 8, !tbaa !8
  %108 = icmp eq ptr null, %107
  br i1 %108, label %109, label %110

109:                                              ; preds = %104
  store i32 -16, ptr %16, align 4, !tbaa !13
  br label %122

110:                                              ; preds = %104
  %111 = load ptr, ptr %20, align 8, !tbaa !8
  %112 = getelementptr inbounds nuw %struct.pmix_bfrop_type_info_t, ptr %111, i32 0, i32 4
  %113 = load ptr, ptr %112, align 8, !tbaa !31
  %114 = load ptr, ptr %7, align 8, !tbaa !3
  %115 = load ptr, ptr %8, align 8, !tbaa !8
  %116 = load ptr, ptr %12, align 8, !tbaa !157
  %117 = load i32, ptr %13, align 4, !tbaa !13
  %118 = sext i32 %117 to i64
  %119 = getelementptr inbounds %struct.pmix_proc_info, ptr %116, i64 %118
  %120 = getelementptr inbounds nuw %struct.pmix_proc_info, ptr %119, i32 0, i32 2
  %121 = call i32 %113(ptr noundef %114, ptr noundef %115, ptr noundef %120, ptr noundef %15, i16 noundef zeroext 3)
  store i32 %121, ptr %16, align 4, !tbaa !13
  br label %122

122:                                              ; preds = %110, %109
  call void @llvm.lifetime.end.p0(i64 8, ptr %20) #11
  br label %123

123:                                              ; preds = %122
  br label %124

124:                                              ; preds = %123
  %125 = load i32, ptr %16, align 4, !tbaa !13
  %126 = icmp ne i32 0, %125
  br i1 %126, label %127, label %129

127:                                              ; preds = %124
  %128 = load i32, ptr %16, align 4, !tbaa !13
  store i32 %128, ptr %6, align 4
  store i32 1, ptr %18, align 4
  br label %186

129:                                              ; preds = %124
  store i32 1, ptr %15, align 4, !tbaa !13
  br label %130

130:                                              ; preds = %129
  call void @llvm.lifetime.start.p0(i64 8, ptr %21) #11
  %131 = load ptr, ptr %7, align 8, !tbaa !3
  %132 = call ptr @pmix_pointer_array_get_item(ptr noundef %131, i32 noundef 5)
  store ptr %132, ptr %21, align 8, !tbaa !8
  %133 = load ptr, ptr %21, align 8, !tbaa !8
  %134 = icmp eq ptr null, %133
  br i1 %134, label %135, label %136

135:                                              ; preds = %130
  store i32 -16, ptr %16, align 4, !tbaa !13
  br label %148

136:                                              ; preds = %130
  %137 = load ptr, ptr %21, align 8, !tbaa !8
  %138 = getelementptr inbounds nuw %struct.pmix_bfrop_type_info_t, ptr %137, i32 0, i32 4
  %139 = load ptr, ptr %138, align 8, !tbaa !31
  %140 = load ptr, ptr %7, align 8, !tbaa !3
  %141 = load ptr, ptr %8, align 8, !tbaa !8
  %142 = load ptr, ptr %12, align 8, !tbaa !157
  %143 = load i32, ptr %13, align 4, !tbaa !13
  %144 = sext i32 %143 to i64
  %145 = getelementptr inbounds %struct.pmix_proc_info, ptr %142, i64 %144
  %146 = getelementptr inbounds nuw %struct.pmix_proc_info, ptr %145, i32 0, i32 3
  %147 = call i32 %139(ptr noundef %140, ptr noundef %141, ptr noundef %146, ptr noundef %15, i16 noundef zeroext 5)
  store i32 %147, ptr %16, align 4, !tbaa !13
  br label %148

148:                                              ; preds = %136, %135
  call void @llvm.lifetime.end.p0(i64 8, ptr %21) #11
  br label %149

149:                                              ; preds = %148
  br label %150

150:                                              ; preds = %149
  %151 = load i32, ptr %16, align 4, !tbaa !13
  %152 = icmp ne i32 0, %151
  br i1 %152, label %153, label %155

153:                                              ; preds = %150
  %154 = load i32, ptr %16, align 4, !tbaa !13
  store i32 %154, ptr %6, align 4
  store i32 1, ptr %18, align 4
  br label %186

155:                                              ; preds = %150
  store i32 1, ptr %15, align 4, !tbaa !13
  br label %156

156:                                              ; preds = %155
  call void @llvm.lifetime.start.p0(i64 8, ptr %22) #11
  %157 = load ptr, ptr %7, align 8, !tbaa !3
  %158 = call ptr @pmix_pointer_array_get_item(ptr noundef %157, i32 noundef 37)
  store ptr %158, ptr %22, align 8, !tbaa !8
  %159 = load ptr, ptr %22, align 8, !tbaa !8
  %160 = icmp eq ptr null, %159
  br i1 %160, label %161, label %162

161:                                              ; preds = %156
  store i32 -16, ptr %16, align 4, !tbaa !13
  br label %174

162:                                              ; preds = %156
  %163 = load ptr, ptr %22, align 8, !tbaa !8
  %164 = getelementptr inbounds nuw %struct.pmix_bfrop_type_info_t, ptr %163, i32 0, i32 4
  %165 = load ptr, ptr %164, align 8, !tbaa !31
  %166 = load ptr, ptr %7, align 8, !tbaa !3
  %167 = load ptr, ptr %8, align 8, !tbaa !8
  %168 = load ptr, ptr %12, align 8, !tbaa !157
  %169 = load i32, ptr %13, align 4, !tbaa !13
  %170 = sext i32 %169 to i64
  %171 = getelementptr inbounds %struct.pmix_proc_info, ptr %168, i64 %170
  %172 = getelementptr inbounds nuw %struct.pmix_proc_info, ptr %171, i32 0, i32 5
  %173 = call i32 %165(ptr noundef %166, ptr noundef %167, ptr noundef %172, ptr noundef %15, i16 noundef zeroext 37)
  store i32 %173, ptr %16, align 4, !tbaa !13
  br label %174

174:                                              ; preds = %162, %161
  call void @llvm.lifetime.end.p0(i64 8, ptr %22) #11
  br label %175

175:                                              ; preds = %174
  br label %176

176:                                              ; preds = %175
  %177 = load i32, ptr %16, align 4, !tbaa !13
  %178 = icmp ne i32 0, %177
  br i1 %178, label %179, label %181

179:                                              ; preds = %176
  %180 = load i32, ptr %16, align 4, !tbaa !13
  store i32 %180, ptr %6, align 4
  store i32 1, ptr %18, align 4
  br label %186

181:                                              ; preds = %176
  br label %182

182:                                              ; preds = %181
  %183 = load i32, ptr %13, align 4, !tbaa !13
  %184 = add nsw i32 %183, 1
  store i32 %184, ptr %13, align 4, !tbaa !13
  br label %43, !llvm.loop !159

185:                                              ; preds = %43
  store i32 0, ptr %6, align 4
  store i32 1, ptr %18, align 4
  br label %186

186:                                              ; preds = %185, %179, %153, %127, %101, %75
  call void @llvm.lifetime.end.p0(i64 4, ptr %16) #11
  call void @llvm.lifetime.end.p0(i64 4, ptr %15) #11
  call void @llvm.lifetime.end.p0(i64 4, ptr %14) #11
  call void @llvm.lifetime.end.p0(i64 4, ptr %13) #11
  call void @llvm.lifetime.end.p0(i64 8, ptr %12) #11
  %187 = load i32, ptr %6, align 4
  ret i32 %187
}