; Function Attrs: nounwind uwtable
define i32 @pmix_bfrops_base_unpack_pinfo(ptr noundef %0, ptr noundef %1, ptr noundef %2, ptr noundef readonly captures(none) %3, i16 noundef zeroext %4) local_unnamed_addr #0 {
  %6 = alloca i32, align 4
  call void @llvm.lifetime.start.p0(i64 4, ptr nonnull %6) #10
  %7 = load i32, ptr getelementptr inbounds nuw (i8, ptr @pmix_bfrops_base_framework, i64 76), align 4, !tbaa !7
  %or.cond = icmp ult i32 %7, 64
  br i1 %or.cond, label %8, label %15

8:                                                ; preds = %5
  %9 = zext nneg i32 %7 to i64
  %10 = getelementptr inbounds nuw [0 x %struct.pmix_output_desc_t], ptr @pmix_output_info, i64 0, i64 %9, i32 2
  %11 = load i32, ptr %10, align 4, !tbaa !19
  %12 = icmp sgt i32 %11, 19
  br i1 %12, label %13, label %15

13:                                               ; preds = %8
  %14 = load i32, ptr %3, align 4, !tbaa !3
  tail call void (i32, ptr, ...) @pmix_output(i32 noundef %7, ptr noundef nonnull @.str.27, i32 noundef %14) #10
  br label %15

15:                                               ; preds = %13, %8, %5
  %16 = load i32, ptr %3, align 4, !tbaa !3
  %17 = getelementptr inbounds nuw i8, ptr %0, i64 152
  %18 = icmp sgt i32 %16, 0
  br i1 %18, label %.lr.ph, label %.thread

.lr.ph:                                           ; preds = %15
  %19 = getelementptr inbounds nuw i8, ptr %0, i64 128
  %wide.trip.count = zext nneg i32 %16 to i64
  br label %21

20:                                               ; preds = %71
  %indvars.iv.next = add nuw nsw i64 %indvars.iv, 1
  %exitcond.not = icmp eq i64 %indvars.iv.next, %wide.trip.count
  br i1 %exitcond.not, label %.thread, label %21, !llvm.loop !108

21:                                               ; preds = %.lr.ph, %20
  %indvars.iv = phi i64 [ 0, %.lr.ph ], [ %indvars.iv.next, %20 ]
  %22 = getelementptr inbounds nuw %struct.pmix_proc_info, ptr %2, i64 %indvars.iv
  call void @PMIx_Proc_info_construct(ptr noundef %22) #10
  store i32 1, ptr %6, align 4, !tbaa !3
  %23 = load i32, ptr %19, align 8, !tbaa !26
  %.not.i = icmp sgt i32 %23, 22
  br i1 %.not.i, label %pmix_pointer_array_get_item.exit, label %.thread, !prof !29

pmix_pointer_array_get_item.exit:                 ; preds = %21
  %24 = load ptr, ptr %17, align 8, !tbaa !30
  %25 = getelementptr inbounds nuw i8, ptr %24, i64 176
  %26 = load ptr, ptr %25, align 8, !tbaa !31
  %27 = icmp eq ptr %26, null
  br i1 %27, label %.thread, label %28

28:                                               ; preds = %pmix_pointer_array_get_item.exit
  %29 = getelementptr inbounds nuw i8, ptr %26, i64 144
  %30 = load ptr, ptr %29, align 8, !tbaa !32
  %31 = call i32 %30(ptr noundef nonnull %0, ptr noundef %1, ptr noundef %22, ptr noundef nonnull %6, i16 noundef zeroext 22) #10
  %.not = icmp eq i32 %31, 0
  br i1 %.not, label %32, label %.thread

32:                                               ; preds = %28
  store i32 1, ptr %6, align 4, !tbaa !3
  %33 = load i32, ptr %19, align 8, !tbaa !26
  %.not.i66 = icmp sgt i32 %33, 3
  br i1 %.not.i66, label %pmix_pointer_array_get_item.exit68, label %.thread, !prof !29

pmix_pointer_array_get_item.exit68:               ; preds = %32
  %34 = load ptr, ptr %17, align 8, !tbaa !30
  %35 = getelementptr inbounds nuw i8, ptr %34, i64 24
  %36 = load ptr, ptr %35, align 8, !tbaa !31
  %37 = icmp eq ptr %36, null
  br i1 %37, label %.thread, label %38

38:                                               ; preds = %pmix_pointer_array_get_item.exit68
  %39 = getelementptr inbounds nuw i8, ptr %36, i64 144
  %40 = load ptr, ptr %39, align 8, !tbaa !32
  %41 = getelementptr inbounds nuw i8, ptr %22, i64 264
  %42 = call i32 %40(ptr noundef nonnull %0, ptr noundef %1, ptr noundef nonnull %41, ptr noundef nonnull %6, i16 noundef zeroext 3) #10
  %.not62 = icmp eq i32 %42, 0
  br i1 %.not62, label %43, label %.thread

43:                                               ; preds = %38
  store i32 1, ptr %6, align 4, !tbaa !3
  %44 = load i32, ptr %19, align 8, !tbaa !26
  %.not.i69 = icmp sgt i32 %44, 3
  br i1 %.not.i69, label %pmix_pointer_array_get_item.exit71, label %.thread, !prof !29

pmix_pointer_array_get_item.exit71:               ; preds = %43
  %45 = load ptr, ptr %17, align 8, !tbaa !30
  %46 = getelementptr inbounds nuw i8, ptr %45, i64 24
  %47 = load ptr, ptr %46, align 8, !tbaa !31
  %48 = icmp eq ptr %47, null
  br i1 %48, label %.thread, label %49

49:                                               ; preds = %pmix_pointer_array_get_item.exit71
  %50 = getelementptr inbounds nuw i8, ptr %47, i64 144
  %51 = load ptr, ptr %50, align 8, !tbaa !32
  %52 = getelementptr inbounds nuw i8, ptr %22, i64 272
  %53 = call i32 %51(ptr noundef nonnull %0, ptr noundef %1, ptr noundef nonnull %52, ptr noundef nonnull %6, i16 noundef zeroext 3) #10
  %.not63 = icmp eq i32 %53, 0
  br i1 %.not63, label %54, label %.thread

54:                                               ; preds = %49
  store i32 1, ptr %6, align 4, !tbaa !3
  %55 = load i32, ptr %19, align 8, !tbaa !26
  %.not.i72 = icmp sgt i32 %55, 5
  br i1 %.not.i72, label %pmix_pointer_array_get_item.exit74, label %.thread, !prof !29

pmix_pointer_array_get_item.exit74:               ; preds = %54
  %56 = load ptr, ptr %17, align 8, !tbaa !30
  %57 = getelementptr inbounds nuw i8, ptr %56, i64 40
  %58 = load ptr, ptr %57, align 8, !tbaa !31
  %59 = icmp eq ptr %58, null
  br i1 %59, label %.thread, label %60

60:                                               ; preds = %pmix_pointer_array_get_item.exit74
  %61 = getelementptr inbounds nuw i8, ptr %58, i64 144
  %62 = load ptr, ptr %61, align 8, !tbaa !32
  %63 = getelementptr inbounds nuw i8, ptr %22, i64 280
  %64 = call i32 %62(ptr noundef nonnull %0, ptr noundef %1, ptr noundef nonnull %63, ptr noundef nonnull %6, i16 noundef zeroext 5) #10
  %.not64 = icmp eq i32 %64, 0
  br i1 %.not64, label %65, label %.thread

65:                                               ; preds = %60
  store i32 1, ptr %6, align 4, !tbaa !3
  %66 = load i32, ptr %19, align 8, !tbaa !26
  %.not.i75 = icmp sgt i32 %66, 37
  br i1 %.not.i75, label %pmix_pointer_array_get_item.exit77, label %.thread, !prof !29

pmix_pointer_array_get_item.exit77:               ; preds = %65
  %67 = load ptr, ptr %17, align 8, !tbaa !30
  %68 = getelementptr inbounds nuw i8, ptr %67, i64 296
  %69 = load ptr, ptr %68, align 8, !tbaa !31
  %70 = icmp eq ptr %69, null
  br i1 %70, label %.thread, label %71

71:                                               ; preds = %pmix_pointer_array_get_item.exit77
  %72 = getelementptr inbounds nuw i8, ptr %69, i64 144
  %73 = load ptr, ptr %72, align 8, !tbaa !32
  %74 = getelementptr inbounds nuw i8, ptr %22, i64 288
  %75 = call i32 %73(ptr noundef nonnull %0, ptr noundef %1, ptr noundef nonnull %74, ptr noundef nonnull %6, i16 noundef zeroext 37) #10
  %.not65 = icmp eq i32 %75, 0
  br i1 %.not65, label %20, label %.thread

.thread:                                          ; preds = %28, %38, %49, %60, %71, %20, %pmix_pointer_array_get_item.exit, %21, %pmix_pointer_array_get_item.exit68, %32, %pmix_pointer_array_get_item.exit71, %43, %pmix_pointer_array_get_item.exit74, %54, %pmix_pointer_array_get_item.exit77, %65, %15
  %.0 = phi i32 [ 0, %15 ], [ -16, %65 ], [ -16, %pmix_pointer_array_get_item.exit77 ], [ -16, %54 ], [ -16, %pmix_pointer_array_get_item.exit74 ], [ -16, %43 ], [ -16, %pmix_pointer_array_get_item.exit71 ], [ -16, %32 ], [ -16, %pmix_pointer_array_get_item.exit68 ], [ -16, %21 ], [ -16, %pmix_pointer_array_get_item.exit ], [ 0, %20 ], [ %75, %71 ], [ %64, %60 ], [ %53, %49 ], [ %42, %38 ], [ %31, %28 ]
  call void @llvm.lifetime.end.p0(i64 4, ptr nonnull %6) #10
  ret i32 %.0
}